target datalayout = "e-m:e-p270:32:32-p271:32:32-p272:64:64-i64:64-i128:128-f80:128-n8:16:32:64-S128"
target triple = "x86_64-pc-linux-gnu"

%"class.cvc5::internal::smt::SmtDriver" = type { %"class.cvc5::internal::EnvObj", ptr, ptr, %"class.cvc5::internal::preprocessing::AssertionPipeline" }
%"class.cvc5::internal::EnvObj" = type { ptr, ptr }
%"class.cvc5::internal::preprocessing::AssertionPipeline" = type { %"class.cvc5::internal::EnvObj", %"class.cvc5::internal::NodeTemplate", %"class.cvc5::internal::NodeTemplate", %"class.std::vector", %"class.std::unordered_map", i64, i8, %"class.std::unordered_set", i64, i64, ptr, i8, i8, i8, i8, %"class.std::unique_ptr", %"class.std::unique_ptr.20" }
%"class.cvc5::internal::NodeTemplate" = type { ptr }
%"class.std::vector" = type { %"struct.std::_Vector_base" }
%"struct.std::_Vector_base" = type { %"struct.std::_Vector_base<cvc5::internal::NodeTemplate<true>, std::allocator<cvc5::internal::NodeTemplate<true>>>::_Vector_impl" }
%"struct.std::_Vector_base<cvc5::internal::NodeTemplate<true>, std::allocator<cvc5::internal::NodeTemplate<true>>>::_Vector_impl" = type { %"struct.std::_Vector_base<cvc5::internal::NodeTemplate<true>, std::allocator<cvc5::internal::NodeTemplate<true>>>::_Vector_impl_data" }
%"struct.std::_Vector_base<cvc5::internal::NodeTemplate<true>, std::allocator<cvc5::internal::NodeTemplate<true>>>::_Vector_impl_data" = type { ptr, ptr, ptr }
%"class.std::unordered_map" = type { %"class.std::_Hashtable" }
%"class.std::_Hashtable" = type { ptr, i64, %"struct.std::__detail::_Hash_node_base", i64, %"struct.std::__detail::_Prime_rehash_policy", ptr }
%"struct.std::__detail::_Hash_node_base" = type { ptr }
%"struct.std::__detail::_Prime_rehash_policy" = type { float, i64 }
%"class.std::unordered_set" = type { %"class.std::_Hashtable.5" }
%"class.std::_Hashtable.5" = type { ptr, i64, %"struct.std::__detail::_Hash_node_base", i64, %"struct.std::__detail::_Prime_rehash_policy", ptr }
%"class.std::unique_ptr" = type { %"struct.std::__uniq_ptr_data" }
%"struct.std::__uniq_ptr_data" = type { %"class.std::__uniq_ptr_impl" }
%"class.std::__uniq_ptr_impl" = type { %"class.std::tuple" }
%"class.std::tuple" = type { %"struct.std::_Tuple_impl" }
%"struct.std::_Tuple_impl" = type { %"struct.std::_Head_base.19" }
%"struct.std::_Head_base.19" = type { ptr }
%"class.std::unique_ptr.20" = type { %"struct.std::__uniq_ptr_data.21" }
%"struct.std::__uniq_ptr_data.21" = type { %"class.std::__uniq_ptr_impl.22" }
%"class.std::__uniq_ptr_impl.22" = type { %"class.std::tuple.23" }
%"class.std::tuple.23" = type { %"struct.std::_Tuple_impl.24" }
%"struct.std::_Tuple_impl.24" = type { %"struct.std::_Head_base.27" }
%"struct.std::_Head_base.27" = type { ptr }

; Function Attrs: mustprogress nounwind uwtable
define linkonce_odr hidden void @_ZN4cvc58internal6EnvObjD2Ev(ptr noundef nonnull align 8 dereferenceable(16) %0) unnamed_addr #7 comdat align 2 {
  %2 = alloca ptr, align 8
  store ptr %0, ptr %2, align 8, !tbaa !57
  ret void
}

; Function Attrs: mustprogress uwtable
define hidden void @_ZN4cvc58internal3smt9SmtDriverC2ERNS0_3EnvERNS1_9SmtSolverEPNS1_14ContextManagerE(ptr noundef nonnull align 8 dereferenceable(264) %0, ptr noundef nonnull align 8 dereferenceable(696) %1, ptr noundef nonnull align 8 dereferenceable(1288) %2, ptr noundef %3) unnamed_addr #4 align 2 personality ptr @__gxx_personality_v0 {
  %5 = alloca ptr, align 8
  %6 = alloca ptr, align 8
  %7 = alloca ptr, align 8
  %8 = alloca ptr, align 8
  %9 = alloca ptr, align 8
  %10 = alloca i32, align 4
  %11 = alloca ptr, align 8
  store ptr %0, ptr %5, align 8, !tbaa !3
  store ptr %1, ptr %6, align 8, !tbaa !8
  store ptr %2, ptr %7, align 8, !tbaa !10
  store ptr %3, ptr %8, align 8, !tbaa !12
  %12 = load ptr, ptr %5, align 8
  %13 = load ptr, ptr %6, align 8, !tbaa !8
  call void @_ZN4cvc58internal6EnvObjC2ERNS0_3EnvE(ptr noundef nonnull align 8 dereferenceable(16) %12, ptr noundef nonnull align 8 dereferenceable(696) %13)
  store ptr getelementptr inbounds inrange(-16, 32) ({ [6 x ptr] }, ptr @_ZTVN4cvc58internal3smt9SmtDriverE, i32 0, i32 0, i32 2), ptr %12, align 8, !tbaa !14
  %14 = getelementptr inbounds nuw %"class.cvc5::internal::smt::SmtDriver", ptr %12, i32 0, i32 1
  %15 = load ptr, ptr %7, align 8, !tbaa !10
  store ptr %15, ptr %14, align 8, !tbaa !10
  %16 = getelementptr inbounds nuw %"class.cvc5::internal::smt::SmtDriver", ptr %12, i32 0, i32 2
  %17 = load ptr, ptr %8, align 8, !tbaa !12
  store ptr %17, ptr %16, align 8, !tbaa !16
  %18 = getelementptr inbounds nuw %"class.cvc5::internal::smt::SmtDriver", ptr %12, i32 0, i32 3
  %19 = load ptr, ptr %6, align 8, !tbaa !8
  invoke void @_ZN4cvc58internal13preprocessing17AssertionPipelineC1ERNS0_3EnvE(ptr noundef nonnull align 8 dereferenceable(232) %18, ptr noundef nonnull align 8 dereferenceable(696) %19)
          to label %20 unwind label %33

20:                                               ; preds = %4
  call void @llvm.lifetime.start.p0(i64 8, ptr %11) #3
  %21 = getelementptr inbounds nuw %"class.cvc5::internal::smt::SmtDriver", ptr %12, i32 0, i32 1
  %22 = load ptr, ptr %21, align 8, !tbaa !53
  %23 = invoke noundef ptr @_ZN4cvc58internal3smt9SmtSolver15getPreprocessorEv(ptr noundef nonnull align 8 dereferenceable(1288) %22)
          to label %24 unwind label %37

24:                                               ; preds = %20
  %25 = invoke noundef ptr @_ZN4cvc58internal3smt12Preprocessor27getPreprocessProofGeneratorEv(ptr noundef nonnull align 8 dereferenceable(712) %23)
          to label %26 unwind label %37

26:                                               ; preds = %24
  store ptr %25, ptr %11, align 8, !tbaa !54
  %27 = load ptr, ptr %11, align 8, !tbaa !54
  %28 = icmp ne ptr %27, null
  br i1 %28, label %29, label %41

29:                                               ; preds = %26
  %30 = getelementptr inbounds nuw %"class.cvc5::internal::smt::SmtDriver", ptr %12, i32 0, i32 3
  %31 = load ptr, ptr %11, align 8, !tbaa !54
  invoke void @_ZN4cvc58internal13preprocessing17AssertionPipeline12enableProofsEPNS0_3smt24PreprocessProofGeneratorE(ptr noundef nonnull align 8 dereferenceable(232) %30, ptr noundef %31)
          to label %32 unwind label %37

32:                                               ; preds = %29
  br label %41

33:                                               ; preds = %4
  %34 = landingpad { ptr, i32 }
          cleanup
  %35 = extractvalue { ptr, i32 } %34, 0
  store ptr %35, ptr %9, align 8
  %36 = extractvalue { ptr, i32 } %34, 1
  store i32 %36, ptr %10, align 4
  br label %42

37:                                               ; preds = %29, %24, %20
  %38 = landingpad { ptr, i32 }
          cleanup
  %39 = extractvalue { ptr, i32 } %38, 0
  store ptr %39, ptr %9, align 8
  %40 = extractvalue { ptr, i32 } %38, 1
  store i32 %40, ptr %10, align 4
  call void @llvm.lifetime.end.p0(i64 8, ptr %11) #3
  call void @_ZN4cvc58internal13preprocessing17AssertionPipelineD2Ev(ptr noundef nonnull align 8 dereferenceable(232) %18) #3
  br label %42

41:                                               ; preds = %32, %26
  call void @llvm.lifetime.end.p0(i64 8, ptr %11) #3
  ret void

42:                                               ; preds = %37, %33
  call void @_ZN4cvc58internal6EnvObjD2Ev(ptr noundef nonnull align 8 dereferenceable(16) %12) #3
  br label %43

43:                                               ; preds = %42
  %44 = load ptr, ptr %9, align 8
  %45 = load i32, ptr %10, align 4
  %46 = insertvalue { ptr, i32 } poison, ptr %44, 0
  %47 = insertvalue { ptr, i32 } %46, i32 %45, 1
  resume { ptr, i32 } %47
}