; Function Attrs: mustprogress uwtable
define hidden void @_ZN4cvc58internal3smt9SmtDriverC2ERNS0_3EnvERNS1_9SmtSolverEPNS1_14ContextManagerE(ptr noundef nonnull align 8 dereferenceable(264) %0, ptr noundef nonnull align 8 dereferenceable(696) %1, ptr noundef nonnull align 8 dereferenceable(1288) %2, ptr noundef %3) unnamed_addr #3 align 2 personality ptr @__gxx_personality_v0 {
  tail call void @_ZN4cvc58internal6EnvObjC2ERNS0_3EnvE(ptr noundef nonnull align 8 dereferenceable(16) %0, ptr noundef nonnull align 8 dereferenceable(696) %1)
  store ptr getelementptr inbounds nuw inrange(-16, 32) (i8, ptr @_ZTVN4cvc58internal3smt9SmtDriverE, i64 16), ptr %0, align 8, !tbaa !3
  %5 = getelementptr inbounds nuw i8, ptr %0, i64 16
  store ptr %2, ptr %5, align 8, !tbaa !6
  %6 = getelementptr inbounds nuw i8, ptr %0, i64 24
  store ptr %3, ptr %6, align 8, !tbaa !10
  %7 = getelementptr inbounds nuw i8, ptr %0, i64 32
  tail call void @_ZN4cvc58internal13preprocessing17AssertionPipelineC1ERNS0_3EnvE(ptr noundef nonnull align 8 dereferenceable(232) %7, ptr noundef nonnull align 8 dereferenceable(696) %1)
  %8 = load ptr, ptr %5, align 8, !tbaa !49
  %9 = invoke noundef ptr @_ZN4cvc58internal3smt9SmtSolver15getPreprocessorEv(ptr noundef nonnull align 8 dereferenceable(1288) %8)
          to label %10 unwind label %14

10:                                               ; preds = %4
  %11 = invoke noundef ptr @_ZN4cvc58internal3smt12Preprocessor27getPreprocessProofGeneratorEv(ptr noundef nonnull align 8 dereferenceable(712) %9)
          to label %12 unwind label %14

12:                                               ; preds = %10
  %.not = icmp eq ptr %11, null
  br i1 %.not, label %16, label %13

13:                                               ; preds = %12
  invoke void @_ZN4cvc58internal13preprocessing17AssertionPipeline12enableProofsEPNS0_3smt24PreprocessProofGeneratorE(ptr noundef nonnull align 8 dereferenceable(232) %7, ptr noundef nonnull %11)
          to label %16 unwind label %14

14:                                               ; preds = %13, %10, %4
  %15 = landingpad { ptr, i32 }
          cleanup
  tail call void @_ZN4cvc58internal13preprocessing17AssertionPipelineD2Ev(ptr noundef nonnull align 8 dereferenceable(232) %7) #19
  resume { ptr, i32 } %15

16:                                               ; preds = %13, %12
  ret void
}